
DC_Motor_Cont_2-2.elf:     file format elf32-avr

Sections:
Idx Name          Size      VMA       LMA       File off  Algn
  0 .data         00000048  00800100  0000074a  000007de  2**0
                  CONTENTS, ALLOC, LOAD, DATA
  1 .text         0000074a  00000000  00000000  00000094  2**1
                  CONTENTS, ALLOC, LOAD, READONLY, CODE
  2 .bss          00000013  00800148  00800148  00000826  2**0
                  ALLOC
  3 .debug_aranges 00000040  00000000  00000000  00000826  2**0
                  CONTENTS, READONLY, DEBUGGING
  4 .debug_pubnames 00000160  00000000  00000000  00000866  2**0
                  CONTENTS, READONLY, DEBUGGING
  5 .debug_info   00000d05  00000000  00000000  000009c6  2**0
                  CONTENTS, READONLY, DEBUGGING
  6 .debug_abbrev 000003fc  00000000  00000000  000016cb  2**0
                  CONTENTS, READONLY, DEBUGGING
  7 .debug_line   000008dc  00000000  00000000  00001ac7  2**0
                  CONTENTS, READONLY, DEBUGGING
  8 .debug_frame  00000170  00000000  00000000  000023a4  2**2
                  CONTENTS, READONLY, DEBUGGING
  9 .debug_str    000002da  00000000  00000000  00002514  2**0
                  CONTENTS, READONLY, DEBUGGING
 10 .debug_loc    0000053d  00000000  00000000  000027ee  2**0
                  CONTENTS, READONLY, DEBUGGING
 11 .debug_ranges 00000060  00000000  00000000  00002d2b  2**0
                  CONTENTS, READONLY, DEBUGGING

Disassembly of section .text:

00000000 <__vectors>:
   0:	0c 94 46 00 	jmp	0x8c	; 0x8c <__ctors_end>
   4:	0c 94 65 00 	jmp	0xca	; 0xca <__bad_interrupt>
   8:	0c 94 65 00 	jmp	0xca	; 0xca <__bad_interrupt>
   c:	0c 94 65 00 	jmp	0xca	; 0xca <__bad_interrupt>
  10:	0c 94 65 00 	jmp	0xca	; 0xca <__bad_interrupt>
  14:	0c 94 65 00 	jmp	0xca	; 0xca <__bad_interrupt>
  18:	0c 94 65 00 	jmp	0xca	; 0xca <__bad_interrupt>
  1c:	0c 94 65 00 	jmp	0xca	; 0xca <__bad_interrupt>
  20:	0c 94 65 00 	jmp	0xca	; 0xca <__bad_interrupt>
  24:	0c 94 65 00 	jmp	0xca	; 0xca <__bad_interrupt>
  28:	0c 94 32 01 	jmp	0x264	; 0x264 <__vector_10>
  2c:	0c 94 65 00 	jmp	0xca	; 0xca <__bad_interrupt>
  30:	0c 94 65 00 	jmp	0xca	; 0xca <__bad_interrupt>
  34:	0c 94 65 00 	jmp	0xca	; 0xca <__bad_interrupt>
  38:	0c 94 65 00 	jmp	0xca	; 0xca <__bad_interrupt>
  3c:	0c 94 65 00 	jmp	0xca	; 0xca <__bad_interrupt>
  40:	0c 94 65 00 	jmp	0xca	; 0xca <__bad_interrupt>
  44:	0c 94 65 00 	jmp	0xca	; 0xca <__bad_interrupt>
  48:	0c 94 65 00 	jmp	0xca	; 0xca <__bad_interrupt>
  4c:	0c 94 65 00 	jmp	0xca	; 0xca <__bad_interrupt>
  50:	0c 94 65 00 	jmp	0xca	; 0xca <__bad_interrupt>
  54:	0c 94 65 00 	jmp	0xca	; 0xca <__bad_interrupt>
  58:	0c 94 65 00 	jmp	0xca	; 0xca <__bad_interrupt>
  5c:	0c 94 65 00 	jmp	0xca	; 0xca <__bad_interrupt>
  60:	0c 94 65 00 	jmp	0xca	; 0xca <__bad_interrupt>
  64:	0c 94 65 00 	jmp	0xca	; 0xca <__bad_interrupt>
  68:	0c 94 65 00 	jmp	0xca	; 0xca <__bad_interrupt>
  6c:	0c 94 65 00 	jmp	0xca	; 0xca <__bad_interrupt>
  70:	0c 94 65 00 	jmp	0xca	; 0xca <__bad_interrupt>
  74:	0c 94 65 00 	jmp	0xca	; 0xca <__bad_interrupt>
  78:	0c 94 65 00 	jmp	0xca	; 0xca <__bad_interrupt>
  7c:	0c 94 65 00 	jmp	0xca	; 0xca <__bad_interrupt>
  80:	0c 94 65 00 	jmp	0xca	; 0xca <__bad_interrupt>
  84:	0c 94 65 00 	jmp	0xca	; 0xca <__bad_interrupt>
  88:	0c 94 65 00 	jmp	0xca	; 0xca <__bad_interrupt>

0000008c <__ctors_end>:
  8c:	11 24       	eor	r1, r1
  8e:	1f be       	out	0x3f, r1	; 63
  90:	cf ef       	ldi	r28, 0xFF	; 255
  92:	d0 e1       	ldi	r29, 0x10	; 16
  94:	de bf       	out	0x3e, r29	; 62
  96:	cd bf       	out	0x3d, r28	; 61

00000098 <__do_copy_data>:
  98:	11 e0       	ldi	r17, 0x01	; 1
  9a:	a0 e0       	ldi	r26, 0x00	; 0
  9c:	b1 e0       	ldi	r27, 0x01	; 1
  9e:	ea e4       	ldi	r30, 0x4A	; 74
  a0:	f7 e0       	ldi	r31, 0x07	; 7
  a2:	00 e0       	ldi	r16, 0x00	; 0
  a4:	0b bf       	out	0x3b, r16	; 59
  a6:	02 c0       	rjmp	.+4      	; 0xac <__do_copy_data+0x14>
  a8:	07 90       	elpm	r0, Z+
  aa:	0d 92       	st	X+, r0
  ac:	a8 34       	cpi	r26, 0x48	; 72
  ae:	b1 07       	cpc	r27, r17
  b0:	d9 f7       	brne	.-10     	; 0xa8 <__do_copy_data+0x10>

000000b2 <__do_clear_bss>:
  b2:	11 e0       	ldi	r17, 0x01	; 1
  b4:	a8 e4       	ldi	r26, 0x48	; 72
  b6:	b1 e0       	ldi	r27, 0x01	; 1
  b8:	01 c0       	rjmp	.+2      	; 0xbc <.do_clear_bss_start>

000000ba <.do_clear_bss_loop>:
  ba:	1d 92       	st	X+, r1

000000bc <.do_clear_bss_start>:
  bc:	ab 35       	cpi	r26, 0x5B	; 91
  be:	b1 07       	cpc	r27, r17
  c0:	e1 f7       	brne	.-8      	; 0xba <.do_clear_bss_loop>
  c2:	0e 94 a9 02 	call	0x552	; 0x552 <main>
  c6:	0c 94 a3 03 	jmp	0x746	; 0x746 <_exit>

000000ca <__bad_interrupt>:
  ca:	0c 94 00 00 	jmp	0	; 0x0 <__vectors>

000000ce <LcdPutchar>:
    can be achieved.
*/
void
_delay_loop_1(uint8_t __count)
{
	__asm__ volatile (
  ce:	95 e3       	ldi	r25, 0x35	; 53
  d0:	29 2f       	mov	r18, r25
  d2:	2a 95       	dec	r18
  d4:	f1 f7       	brne	.-4      	; 0xd2 <LcdPutchar+0x4>

static void write_data(char ch)
{
	unsigned char temp;

	temp = (ch & 0xF0) | 0x05;
  d6:	29 2f       	mov	r18, r25
  d8:	2a 95       	dec	r18
  da:	f1 f7       	brne	.-4      	; 0xd8 <LcdPutchar+0xa>
  dc:	29 2f       	mov	r18, r25
  de:	2a 95       	dec	r18
  e0:	f1 f7       	brne	.-4      	; 0xde <LcdPutchar+0x10>
  e2:	29 2f       	mov	r18, r25
  e4:	2a 95       	dec	r18
  e6:	f1 f7       	brne	.-4      	; 0xe4 <LcdPutchar+0x16>
  e8:	9a 95       	dec	r25
  ea:	f1 f7       	brne	.-4      	; 0xe8 <LcdPutchar+0x1a>
  ec:	98 2f       	mov	r25, r24
  ee:	90 7f       	andi	r25, 0xF0	; 240
  f0:	95 60       	ori	r25, 0x05	; 5

	LCD_PORT = temp;
  f2:	95 bb       	out	0x15, r25	; 21
	LCD_PORT = temp & ~0x04;
  f4:	9b 7f       	andi	r25, 0xFB	; 251
  f6:	95 bb       	out	0x15, r25	; 21

	temp = (ch<<4) | 0x05;
  f8:	82 95       	swap	r24
  fa:	80 7f       	andi	r24, 0xF0	; 240
  fc:	85 60       	ori	r24, 0x05	; 5

	LCD_PORT = temp;
  fe:	85 bb       	out	0x15, r24	; 21
	LCD_PORT = temp & ~0x04;
 100:	8b 7f       	andi	r24, 0xFB	; 251
 102:	85 bb       	out	0x15, r24	; 21

void LcdPutchar(char ch)
{
	checkbusy();
	write_data(ch);
}
 104:	08 95       	ret

00000106 <LcdPuts>:

void LcdPuts(char* str)
{
 106:	cf 93       	push	r28
 108:	df 93       	push	r29
 10a:	ec 01       	movw	r28, r24
 10c:	03 c0       	rjmp	.+6      	; 0x114 <LcdPuts+0xe>
   while(*str)
  {
   LcdPutchar(*str);
 10e:	0e 94 67 00 	call	0xce	; 0xce <LcdPutchar>
   str++;
 112:	21 96       	adiw	r28, 0x01	; 1
	write_data(ch);
}

void LcdPuts(char* str)
{
   while(*str)
 114:	88 81       	ld	r24, Y
 116:	88 23       	and	r24, r24
 118:	d1 f7       	brne	.-12     	; 0x10e <LcdPuts+0x8>
  {
   LcdPutchar(*str);
   str++;
  }
}
 11a:	df 91       	pop	r29
 11c:	cf 91       	pop	r28
 11e:	08 95       	ret

00000120 <write_command>:

static void write_command(char command)

{
  char temp;
  temp = (command & 0xF0)|0x04;
 120:	98 2f       	mov	r25, r24
 122:	90 7f       	andi	r25, 0xF0	; 240
 124:	94 60       	ori	r25, 0x04	; 4

LCD_PORT = temp;
 126:	95 bb       	out	0x15, r25	; 21
LCD_PORT = temp & ~0x04;
 128:	9b 7f       	andi	r25, 0xFB	; 251
 12a:	95 bb       	out	0x15, r25	; 21

temp = (command << 4) | 0x04;
 12c:	82 95       	swap	r24
 12e:	80 7f       	andi	r24, 0xF0	; 240
 130:	84 60       	ori	r24, 0x04	; 4

LCD_PORT = temp;
 132:	85 bb       	out	0x15, r24	; 21
LCD_PORT = temp & ~0x04;
 134:	8b 7f       	andi	r24, 0xFB	; 251
 136:	85 bb       	out	0x15, r24	; 21
 138:	85 e0       	ldi	r24, 0x05	; 5
 13a:	8a 95       	dec	r24
 13c:	f1 f7       	brne	.-4      	; 0x13a <write_command+0x1a>
_delay_us(1);
}
 13e:	08 95       	ret

00000140 <LcdCommand>:
	LcdCommand(ENTMOD);

	LcdCommand(DISP_ON);
}
void LcdCommand(char command)
{
 140:	1f 93       	push	r17
 142:	18 2f       	mov	r17, r24
 144:	85 e3       	ldi	r24, 0x35	; 53
 146:	98 2f       	mov	r25, r24
 148:	9a 95       	dec	r25
 14a:	f1 f7       	brne	.-4      	; 0x148 <LcdCommand+0x8>
	checkbusy();
	write_command(command);
 14c:	98 2f       	mov	r25, r24
 14e:	9a 95       	dec	r25
 150:	f1 f7       	brne	.-4      	; 0x14e <LcdCommand+0xe>
 152:	98 2f       	mov	r25, r24
 154:	9a 95       	dec	r25
 156:	f1 f7       	brne	.-4      	; 0x154 <LcdCommand+0x14>
 158:	98 2f       	mov	r25, r24
 15a:	9a 95       	dec	r25
 15c:	f1 f7       	brne	.-4      	; 0x15a <LcdCommand+0x1a>
 15e:	8a 95       	dec	r24
 160:	f1 f7       	brne	.-4      	; 0x15e <LcdCommand+0x1e>
 162:	81 2f       	mov	r24, r17
 164:	0e 94 90 00 	call	0x120	; 0x120 <write_command>
	if(command==ALLCLR || command==HOME)
 168:	11 50       	subi	r17, 0x01	; 1
 16a:	12 30       	cpi	r17, 0x02	; 2
 16c:	20 f4       	brcc	.+8      	; 0x176 <LcdCommand+0x36>
    milliseconds can be achieved.
 */
void
_delay_loop_2(uint16_t __count)
{
	__asm__ volatile (
 16e:	80 e4       	ldi	r24, 0x40	; 64
 170:	9f e1       	ldi	r25, 0x1F	; 31
 172:	01 97       	sbiw	r24, 0x01	; 1
 174:	f1 f7       	brne	.-4      	; 0x172 <LcdCommand+0x32>
		_delay_ms(2);
}
 176:	1f 91       	pop	r17
 178:	08 95       	ret

0000017a <LcdNewchar>:
  LcdCommand(pos);
}


void LcdNewchar(char ch, char font[])
{
 17a:	0f 93       	push	r16
 17c:	1f 93       	push	r17
 17e:	cf 93       	push	r28
 180:	df 93       	push	r29
 182:	8b 01       	movw	r16, r22
 int i;

 ch <<=3;
 184:	88 0f       	add	r24, r24
 186:	88 0f       	add	r24, r24
 188:	88 0f       	add	r24, r24
 ch|= 0x40;

 LcdCommand(ch);
 18a:	80 64       	ori	r24, 0x40	; 64
 18c:	0e 94 a0 00 	call	0x140	; 0x140 <LcdCommand>
 190:	c0 e0       	ldi	r28, 0x00	; 0
 192:	d0 e0       	ldi	r29, 0x00	; 0

 for(i=0;i<8;i++)
    LcdPutchar(font[i]);
 194:	f8 01       	movw	r30, r16
 196:	ec 0f       	add	r30, r28
 198:	fd 1f       	adc	r31, r29
 19a:	80 81       	ld	r24, Z
 19c:	0e 94 67 00 	call	0xce	; 0xce <LcdPutchar>
 ch <<=3;
 ch|= 0x40;

 LcdCommand(ch);

 for(i=0;i<8;i++)
 1a0:	21 96       	adiw	r28, 0x01	; 1
 1a2:	c8 30       	cpi	r28, 0x08	; 8
 1a4:	d1 05       	cpc	r29, r1
 1a6:	b1 f7       	brne	.-20     	; 0x194 <LcdNewchar+0x1a>
    LcdPutchar(font[i]);
}
 1a8:	df 91       	pop	r29
 1aa:	cf 91       	pop	r28
 1ac:	1f 91       	pop	r17
 1ae:	0f 91       	pop	r16
 1b0:	08 95       	ret

000001b2 <LcdMove>:

{ 

//  pos = (line << 6) + pos; 

	if(line == 0 )       pos = 0x00 + pos ;
 1b2:	88 23       	and	r24, r24
 1b4:	49 f0       	breq	.+18     	; 0x1c8 <LcdMove+0x16>
	else if( line == 1 ) pos = 0x40 + pos ;
 1b6:	81 30       	cpi	r24, 0x01	; 1
 1b8:	11 f4       	brne	.+4      	; 0x1be <LcdMove+0xc>
 1ba:	60 5c       	subi	r22, 0xC0	; 192
 1bc:	05 c0       	rjmp	.+10     	; 0x1c8 <LcdMove+0x16>
	else if( line == 2 ) pos = 0x10 + pos ;
 1be:	82 30       	cpi	r24, 0x02	; 2
 1c0:	11 f4       	brne	.+4      	; 0x1c6 <LcdMove+0x14>
 1c2:	60 5f       	subi	r22, 0xF0	; 240
 1c4:	01 c0       	rjmp	.+2      	; 0x1c8 <LcdMove+0x16>
	else                 pos = 0x50 + pos ;
 1c6:	60 5b       	subi	r22, 0xB0	; 176

  pos |= 0x80;
 
  LcdCommand(pos);
 1c8:	86 2f       	mov	r24, r22
 1ca:	80 68       	ori	r24, 0x80	; 128
 1cc:	0e 94 a0 00 	call	0x140	; 0x140 <LcdCommand>
}
 1d0:	08 95       	ret

000001d2 <LcdInit>:
static void write_command(char command);
static void write_data(char ch);

void LcdInit(void)
{
	LCD_DDR = 0xff;
 1d2:	8f ef       	ldi	r24, 0xFF	; 255
 1d4:	84 bb       	out	0x14, r24	; 20
 1d6:	80 e6       	ldi	r24, 0x60	; 96
 1d8:	9a ee       	ldi	r25, 0xEA	; 234
 1da:	01 97       	sbiw	r24, 0x01	; 1
 1dc:	f1 f7       	brne	.-4      	; 0x1da <LcdInit+0x8>
	_delay_ms(15);
	write_command(0x30);
 1de:	80 e3       	ldi	r24, 0x30	; 48
 1e0:	0e 94 90 00 	call	0x120	; 0x120 <write_command>
 1e4:	80 e2       	ldi	r24, 0x20	; 32
 1e6:	9e e4       	ldi	r25, 0x4E	; 78
 1e8:	01 97       	sbiw	r24, 0x01	; 1
 1ea:	f1 f7       	brne	.-4      	; 0x1e8 <LcdInit+0x16>
	_delay_ms(5);
	write_command(0x30);
 1ec:	80 e3       	ldi	r24, 0x30	; 48
 1ee:	0e 94 90 00 	call	0x120	; 0x120 <write_command>
 1f2:	80 ea       	ldi	r24, 0xA0	; 160
 1f4:	9f e0       	ldi	r25, 0x0F	; 15
 1f6:	01 97       	sbiw	r24, 0x01	; 1
 1f8:	f1 f7       	brne	.-4      	; 0x1f6 <LcdInit+0x24>
	_delay_ms(1);
	write_command(0x32);
 1fa:	82 e3       	ldi	r24, 0x32	; 50
 1fc:	0e 94 90 00 	call	0x120	; 0x120 <write_command>

	LcdCommand(FUNSET);
 200:	88 e2       	ldi	r24, 0x28	; 40
 202:	0e 94 a0 00 	call	0x140	; 0x140 <LcdCommand>
	LcdCommand(DISP_OFF);
 206:	88 e0       	ldi	r24, 0x08	; 8
 208:	0e 94 a0 00 	call	0x140	; 0x140 <LcdCommand>
	LcdCommand(ALLCLR);
 20c:	81 e0       	ldi	r24, 0x01	; 1
 20e:	0e 94 a0 00 	call	0x140	; 0x140 <LcdCommand>
	LcdCommand(ENTMOD);
 212:	86 e0       	ldi	r24, 0x06	; 6
 214:	0e 94 a0 00 	call	0x140	; 0x140 <LcdCommand>

	LcdCommand(DISP_ON);
 218:	8c e0       	ldi	r24, 0x0C	; 12
 21a:	0e 94 a0 00 	call	0x140	; 0x140 <LcdCommand>
}
 21e:	08 95       	ret

00000220 <DC_Motor1_Run_Fwd>:

////////////////////////////////////////////////////////


void DC_Motor1_Run_Fwd( short duty )   // DC 모터1 정회전 함수 
{
 220:	9c 01       	movw	r18, r24
    if( duty > Duty1_Max )     duty = Duty1_Max; // duty 범위를 벗어나면 Duty1_Max로 설정 
 222:	80 91 46 01 	lds	r24, 0x0146
 226:	90 91 47 01 	lds	r25, 0x0147
 22a:	82 17       	cp	r24, r18
 22c:	93 07       	cpc	r25, r19
 22e:	24 f4       	brge	.+8      	; 0x238 <DC_Motor1_Run_Fwd+0x18>
 230:	20 91 46 01 	lds	r18, 0x0146
 234:	30 91 47 01 	lds	r19, 0x0147
    duty = ( duty*PWM_Period )/Duty1_Max;        // %단위의 duty 값을 실제 레지스터(OCR1A) 설정 값으로 변환
 238:	80 91 50 01 	lds	r24, 0x0150
 23c:	90 91 51 01 	lds	r25, 0x0151
 240:	60 91 46 01 	lds	r22, 0x0146
 244:	70 91 47 01 	lds	r23, 0x0147

    PORTA &= ~0x01;      // 회전방향설정(정회전) :   DC모터1 B단자(-) = 0(Low) ( PA0 = 0 )    
 248:	d8 98       	cbi	0x1b, 0	; 27
    OCR1A = duty;        // 회전속도(PWM Duty)설정 : DC모터1 A단자(+) = PWM신호(OC1A(PB5))  
 24a:	ac 01       	movw	r20, r24
 24c:	24 9f       	mul	r18, r20
 24e:	c0 01       	movw	r24, r0
 250:	25 9f       	mul	r18, r21
 252:	90 0d       	add	r25, r0
 254:	34 9f       	mul	r19, r20
 256:	90 0d       	add	r25, r0
 258:	11 24       	eor	r1, r1
 25a:	0e 94 90 03 	call	0x720	; 0x720 <__divmodhi4>
 25e:	7b bd       	out	0x2b, r23	; 43
 260:	6a bd       	out	0x2a, r22	; 42
}
 262:	08 95       	ret

00000264 <__vector_10>:



////////////////////////////////////////////////////////////////
ISR( TIMER2_OVF_vect )   // 10msec 주기의 타이머2 오버플로 인터럽트 서비스프로그램
{                        // DC모터1, DC모터2 동작시퀀스 실행 
 264:	1f 92       	push	r1
 266:	0f 92       	push	r0
 268:	0f b6       	in	r0, 0x3f	; 63
 26a:	0f 92       	push	r0
 26c:	0b b6       	in	r0, 0x3b	; 59
 26e:	0f 92       	push	r0
 270:	11 24       	eor	r1, r1
 272:	2f 93       	push	r18
 274:	3f 93       	push	r19
 276:	4f 93       	push	r20
 278:	5f 93       	push	r21
 27a:	6f 93       	push	r22
 27c:	7f 93       	push	r23
 27e:	8f 93       	push	r24
 280:	9f 93       	push	r25
 282:	af 93       	push	r26
 284:	bf 93       	push	r27
 286:	ef 93       	push	r30
 288:	ff 93       	push	r31

    TCNT2 = 256 - 156;        // 내부클럭주기 = 1024/ (16x10^6) = 64 usec,  
 28a:	84 e6       	ldi	r24, 0x64	; 100
 28c:	84 bd       	out	0x24, r24	; 36
                              // 오버플로인터럽트 주기 = 10msec
                              // 156 = 10msec/ 64usec,  TCNT2 = 256 - 156 

   ///////  DC모터1 동작 시퀀스 ////////////

  if( Operating_Sequence == RUN_MODE )
 28e:	80 91 52 01 	lds	r24, 0x0152
 292:	81 30       	cpi	r24, 0x01	; 1
 294:	d9 f4       	brne	.+54     	; 0x2cc <__vector_10+0x68>
  {
      
      if( Step == 0 )      
 296:	80 91 53 01 	lds	r24, 0x0153
 29a:	90 91 54 01 	lds	r25, 0x0154
 29e:	89 2b       	or	r24, r25
 2a0:	51 f4       	brne	.+20     	; 0x2b6 <__vector_10+0x52>
	  {  	 DC_Motor1_Direction = FORWARD;      // DC모터1 정방향 회전상태 
 2a2:	10 92 55 01 	sts	0x0155, r1
             DC_Motor1_Run_Fwd( Motor1_Duty );   // DC 모터1 정회전(PWM구동) 함수(2초동안 정회전) 
 2a6:	80 91 56 01 	lds	r24, 0x0156
 2aa:	90 91 57 01 	lds	r25, 0x0157
 2ae:	0e 94 10 01 	call	0x220	; 0x220 <DC_Motor1_Run_Fwd>
             PORTA &=  ~0x04;                    // LED1 ON ( PA2 = 0 ) : DC모터1 회전상태 표시
 2b2:	da 98       	cbi	0x1b, 2	; 27
 2b4:	0b c0       	rjmp	.+22     	; 0x2cc <__vector_10+0x68>
                                                 // PORTA = 0b**** *0**,   PORTA = PORTA & ~0b0000 0100( ~0x04 )

       }   // End of  if( Operating_Sequence = RUN_MODE )
	else if( Operating_Sequence == STOP_MODE )  // 모터가 정지모드 시  
 2b6:	80 91 52 01 	lds	r24, 0x0152
 2ba:	88 23       	and	r24, r24
 2bc:	39 f4       	brne	.+14     	; 0x2cc <__vector_10+0x68>
    {         
     	DC_Motor1_Direction = STOP;   // DC모터1 정지상태 
 2be:	82 e0       	ldi	r24, 0x02	; 2
 2c0:	80 93 55 01 	sts	0x0155, r24
    OCR1A = PWM_Period - duty;   // 회전속도(PWM Duty)설정 : DC모터1 A단자(+) = PWM신호(OC1A(PB5))  
}

void DC_Motor1_Stop( void )   // DC 모터1 정지 함수 
{
    PORTA &= ~0x01;      // 회전방향설정(정회전) :          DC모터1 B단자(-) = 0(Low) ( PA0 = 0 )    
 2c4:	d8 98       	cbi	0x1b, 0	; 27
    OCR1A = 0;           // 회전속도 0(PWM Duty = 0) 설정 : DC모터1 A단자(+) = PWM신호(OC1A(PB5))  
 2c6:	1b bc       	out	0x2b, r1	; 43
 2c8:	1a bc       	out	0x2a, r1	; 42
       }   // End of  if( Operating_Sequence = RUN_MODE )
	else if( Operating_Sequence == STOP_MODE )  // 모터가 정지모드 시  
    {         
     	DC_Motor1_Direction = STOP;   // DC모터1 정지상태 
        DC_Motor1_Stop( );            // DC 모터1 정지(PWM구동) 함수 호출 
        PORTA |=  0x04;               // LED1 OFF ( PA2 = 1 ) : DC모터1 정지상태 표시
 2ca:	da 9a       	sbi	0x1b, 2	; 27
                                            // PORTA = 0b**** *1**,   PORTA = PORTA | 0b0000 0100( 0x04 )
	}
    }	//End of else if( Operating_Sequence = STOP_MODE )

}       // End of  ISR( TIMER2_OVF_vect )
 2cc:	ff 91       	pop	r31
 2ce:	ef 91       	pop	r30
 2d0:	bf 91       	pop	r27
 2d2:	af 91       	pop	r26
 2d4:	9f 91       	pop	r25
 2d6:	8f 91       	pop	r24
 2d8:	7f 91       	pop	r23
 2da:	6f 91       	pop	r22
 2dc:	5f 91       	pop	r21
 2de:	4f 91       	pop	r20
 2e0:	3f 91       	pop	r19
 2e2:	2f 91       	pop	r18
 2e4:	0f 90       	pop	r0
 2e6:	0b be       	out	0x3b, r0	; 59
 2e8:	0f 90       	pop	r0
 2ea:	0f be       	out	0x3f, r0	; 63
 2ec:	0f 90       	pop	r0
 2ee:	1f 90       	pop	r1
 2f0:	18 95       	reti

000002f2 <DC_Motor1_Run_Rev>:
    PORTA &= ~0x01;      // 회전방향설정(정회전) :   DC모터1 B단자(-) = 0(Low) ( PA0 = 0 )    
    OCR1A = duty;        // 회전속도(PWM Duty)설정 : DC모터1 A단자(+) = PWM신호(OC1A(PB5))  
}

void DC_Motor1_Run_Rev( short duty )   // DC 모터1 역회전 함수 
{
 2f2:	ac 01       	movw	r20, r24
    if( duty > Duty1_Max )     duty = Duty1_Max;  // duty 범위를 벗어나면 Duty1_Max로 설정 
 2f4:	80 91 46 01 	lds	r24, 0x0146
 2f8:	90 91 47 01 	lds	r25, 0x0147
 2fc:	84 17       	cp	r24, r20
 2fe:	95 07       	cpc	r25, r21
 300:	24 f4       	brge	.+8      	; 0x30a <DC_Motor1_Run_Rev+0x18>
 302:	40 91 46 01 	lds	r20, 0x0146
 306:	50 91 47 01 	lds	r21, 0x0147
    duty = ( duty*PWM_Period )/Duty1_Max;         // %단위의 duty 값을 실제 레지스터(OCR1A) 설정 값으로 변환
 30a:	80 91 50 01 	lds	r24, 0x0150
 30e:	90 91 51 01 	lds	r25, 0x0151
 312:	60 91 46 01 	lds	r22, 0x0146
 316:	70 91 47 01 	lds	r23, 0x0147

    PORTA |= 0x01;               // 회전방향설정(역회전) :   DC모터1 B단자(-) = 1(High) ( PA0 = 1 )    
 31a:	d8 9a       	sbi	0x1b, 0	; 27
    OCR1A = PWM_Period - duty;   // 회전속도(PWM Duty)설정 : DC모터1 A단자(+) = PWM신호(OC1A(PB5))  
 31c:	20 91 50 01 	lds	r18, 0x0150
 320:	30 91 51 01 	lds	r19, 0x0151
 324:	fc 01       	movw	r30, r24
 326:	4e 9f       	mul	r20, r30
 328:	c0 01       	movw	r24, r0
 32a:	4f 9f       	mul	r20, r31
 32c:	90 0d       	add	r25, r0
 32e:	5e 9f       	mul	r21, r30
 330:	90 0d       	add	r25, r0
 332:	11 24       	eor	r1, r1
 334:	0e 94 90 03 	call	0x720	; 0x720 <__divmodhi4>
 338:	26 1b       	sub	r18, r22
 33a:	37 0b       	sbc	r19, r23
 33c:	3b bd       	out	0x2b, r19	; 43
 33e:	2a bd       	out	0x2a, r18	; 42
}
 340:	08 95       	ret

00000342 <DC_Motor1_Stop>:

void DC_Motor1_Stop( void )   // DC 모터1 정지 함수 
{
    PORTA &= ~0x01;      // 회전방향설정(정회전) :          DC모터1 B단자(-) = 0(Low) ( PA0 = 0 )    
 342:	d8 98       	cbi	0x1b, 0	; 27
    OCR1A = 0;           // 회전속도 0(PWM Duty = 0) 설정 : DC모터1 A단자(+) = PWM신호(OC1A(PB5))  
 344:	1b bc       	out	0x2b, r1	; 43
 346:	1a bc       	out	0x2a, r1	; 42
}
 348:	08 95       	ret

0000034a <DC_Motor1_PWM>:

void DC_Motor1_PWM( short duty )   // DC 모터1 PWM 구동 함수  
{
 34a:	9c 01       	movw	r18, r24
   if ( duty > Duty1_Max )       duty = Duty1_Max;    // duty가 양의 최대법위 보다 크면 Duty1_Max로 설정 
 34c:	80 91 46 01 	lds	r24, 0x0146
 350:	90 91 47 01 	lds	r25, 0x0147
 354:	82 17       	cp	r24, r18
 356:	93 07       	cpc	r25, r19
 358:	2c f4       	brge	.+10     	; 0x364 <DC_Motor1_PWM+0x1a>
 35a:	20 91 46 01 	lds	r18, 0x0146
 35e:	30 91 47 01 	lds	r19, 0x0147
 362:	12 c0       	rjmp	.+36     	; 0x388 <DC_Motor1_PWM+0x3e>
   else if( duty < -Duty1_Max )  duty = -Duty1_Max;   // duty가 음의 최소범위 보다 작으면 -Duty1_Max로 설정 
 364:	80 91 46 01 	lds	r24, 0x0146
 368:	90 91 47 01 	lds	r25, 0x0147
 36c:	90 95       	com	r25
 36e:	81 95       	neg	r24
 370:	9f 4f       	sbci	r25, 0xFF	; 255
 372:	28 17       	cp	r18, r24
 374:	39 07       	cpc	r19, r25
 376:	44 f4       	brge	.+16     	; 0x388 <DC_Motor1_PWM+0x3e>
 378:	80 91 46 01 	lds	r24, 0x0146
 37c:	90 91 47 01 	lds	r25, 0x0147
 380:	22 27       	eor	r18, r18
 382:	33 27       	eor	r19, r19
 384:	28 1b       	sub	r18, r24
 386:	39 0b       	sbc	r19, r25

   if( duty > 0 )          DC_Motor1_Run_Fwd( duty );
 388:	12 16       	cp	r1, r18
 38a:	13 06       	cpc	r1, r19
 38c:	24 f4       	brge	.+8      	; 0x396 <DC_Motor1_PWM+0x4c>
 38e:	c9 01       	movw	r24, r18
 390:	0e 94 10 01 	call	0x220	; 0x220 <DC_Motor1_Run_Fwd>
 394:	08 95       	ret
   else if( duty == 0 )    DC_Motor1_Stop();
 396:	21 15       	cp	r18, r1
 398:	31 05       	cpc	r19, r1
 39a:	21 f4       	brne	.+8      	; 0x3a4 <DC_Motor1_PWM+0x5a>
    OCR1A = PWM_Period - duty;   // 회전속도(PWM Duty)설정 : DC모터1 A단자(+) = PWM신호(OC1A(PB5))  
}

void DC_Motor1_Stop( void )   // DC 모터1 정지 함수 
{
    PORTA &= ~0x01;      // 회전방향설정(정회전) :          DC모터1 B단자(-) = 0(Low) ( PA0 = 0 )    
 39c:	d8 98       	cbi	0x1b, 0	; 27
    OCR1A = 0;           // 회전속도 0(PWM Duty = 0) 설정 : DC모터1 A단자(+) = PWM신호(OC1A(PB5))  
 39e:	1b bc       	out	0x2b, r1	; 43
 3a0:	1a bc       	out	0x2a, r1	; 42
 3a2:	08 95       	ret
   if ( duty > Duty1_Max )       duty = Duty1_Max;    // duty가 양의 최대법위 보다 크면 Duty1_Max로 설정 
   else if( duty < -Duty1_Max )  duty = -Duty1_Max;   // duty가 음의 최소범위 보다 작으면 -Duty1_Max로 설정 

   if( duty > 0 )          DC_Motor1_Run_Fwd( duty );
   else if( duty == 0 )    DC_Motor1_Stop();
   else if( duty < 0 )     DC_Motor1_Run_Rev( -duty );
 3a4:	88 27       	eor	r24, r24
 3a6:	99 27       	eor	r25, r25
 3a8:	82 1b       	sub	r24, r18
 3aa:	93 0b       	sbc	r25, r19
 3ac:	0e 94 79 01 	call	0x2f2	; 0x2f2 <DC_Motor1_Run_Rev>
 3b0:	08 95       	ret

000003b2 <key_scan>:
unsigned char key_scan(void)  // Key_Input( ) 함수에서 호출하는 내부 함수. 실제로 어느 HW 입력포트에 연결된 
{                              // push 스위치가 눌러졌는지 체크(스캔)하는 함수 임. 
                               // key와 관련된 HW 변경 시 (key를 다른 입력포트에 연결할 때) 반드시 수정해야함.
    unsigned char   in = 0 ;
    
    if (       ( ~PINA  & 0x10  ) == 0x10  )        in = KEY1 ; 	  //   Key1 (PA4) 이 눌러지면    	
 3b2:	cc 99       	sbic	0x19, 4	; 25
 3b4:	02 c0       	rjmp	.+4      	; 0x3ba <key_scan+0x8>
 3b6:	81 e0       	ldi	r24, 0x01	; 1
 3b8:	08 95       	ret
    else if (  ( ~PINA  & 0x20  ) == 0x20  )        in = KEY2 ; 	  //   Key2 (PA5) 가 눌러지면   		    		 
 3ba:	cd 99       	sbic	0x19, 5	; 25
 3bc:	02 c0       	rjmp	.+4      	; 0x3c2 <key_scan+0x10>
 3be:	82 e0       	ldi	r24, 0x02	; 2
 3c0:	08 95       	ret
    else if (  ( ~PINB  & 0x01  ) == 0x01  )        in = KEY3 ; 	  //   Key3 (PB0) 가 눌러지면     	 
 3c2:	b0 9b       	sbis	0x16, 0	; 22
 3c4:	02 c0       	rjmp	.+4      	; 0x3ca <key_scan+0x18>
 3c6:	80 e0       	ldi	r24, 0x00	; 0
 3c8:	08 95       	ret
 3ca:	83 e0       	ldi	r24, 0x03	; 3
    else                                             in = NO_KEY;   //	Key가 눌러지지 않으면 
    
    return   in ;
    
}
 3cc:	08 95       	ret

000003ce <Key_Input>:
 

/////////////////////////////////////   
                                                           
unsigned char Key_Input(void)   // 함수 호출시 새롭게 눌러진 key 값을 리턴함(채터링 방지 기능포함.)
{                      // 눌러진 key가 없을 시 0(NO_KEY) 이 리턴됨. 한번 호출시 마다 50 msec 이상 시간이 소요. 
 3ce:	1f 93       	push	r17
 3d0:	cf 93       	push	r28
 3d2:	df 93       	push	r29
    static unsigned char pin = NO_KEY; 
    unsigned char in, in1;

    in = key_scan();             // key 입력 읽기 
 3d4:	0e 94 d9 01 	call	0x3b2	; 0x3b2 <key_scan>
 3d8:	18 2f       	mov	r17, r24
 3da:	c0 ea       	ldi	r28, 0xA0	; 160
 3dc:	df e0       	ldi	r29, 0x0F	; 15
 3de:	82 e3       	ldi	r24, 0x32	; 50
 3e0:	90 e0       	ldi	r25, 0x00	; 0
 3e2:	fe 01       	movw	r30, r28
 3e4:	31 97       	sbiw	r30, 0x01	; 1
 3e6:	f1 f7       	brne	.-4      	; 0x3e4 <Key_Input+0x16>
}


void msec_delay(int n)           // n msec 만큼의 시간지연 발생 함수 
{	
	for(; n>0; n--)		// 1msec 시간 지연을 n회 반복
 3e8:	01 97       	sbiw	r24, 0x01	; 1
 3ea:	d9 f7       	brne	.-10     	; 0x3e2 <Key_Input+0x14>

    in = key_scan();             // key 입력 읽기 
    while(1)                     // key 입력이 안정화될때까지 기다림
    {
        msec_delay(50);         // 디바운싱 시간 지연     
        in1 = key_scan();        // key 입력 읽기     
 3ec:	0e 94 d9 01 	call	0x3b2	; 0x3b2 <key_scan>
        if( in == in1 ) break;
 3f0:	18 17       	cp	r17, r24
 3f2:	11 f0       	breq	.+4      	; 0x3f8 <Key_Input+0x2a>
 3f4:	18 2f       	mov	r17, r24
 3f6:	f3 cf       	rjmp	.-26     	; 0x3de <Key_Input+0x10>
        in = in1;
    }
    if( !( in & 0xFF ) )    // key가 눌려지지 않고 있으면  0 ( NO_KEY) 리턴
 3f8:	11 23       	and	r17, r17
 3fa:	19 f4       	brne	.+6      	; 0x402 <Key_Input+0x34>
    {	
        pin= NO_KEY;				
 3fc:	10 92 4f 01 	sts	0x014F, r1
 400:	08 c0       	rjmp	.+16     	; 0x412 <Key_Input+0x44>
        return NO_KEY;
    }
    if( pin == in )         // 동일한 key가 계속 눌려지고 있으면  0 ( NO_KEY) 리턴
 402:	80 91 4f 01 	lds	r24, 0x014F
 406:	81 17       	cp	r24, r17
 408:	11 f4       	brne	.+4      	; 0x40e <Key_Input+0x40>
 40a:	10 e0       	ldi	r17, 0x00	; 0
 40c:	02 c0       	rjmp	.+4      	; 0x412 <Key_Input+0x44>
    {
        return NO_KEY;  
    }
    pin = in;
 40e:	10 93 4f 01 	sts	0x014F, r17

    return  in;
}
 412:	81 2f       	mov	r24, r17
 414:	df 91       	pop	r29
 416:	cf 91       	pop	r28
 418:	1f 91       	pop	r17
 41a:	08 95       	ret

0000041c <Time_Delay_Polling>:
unsigned char Time_Delay_Polling( unsigned short d_time )  // 시간경과 체크함수(폴링방식)
{
    static unsigned short  curr_delay = 0; 
    unsigned char  ret_val = 0;

    curr_delay++ ;  
 41c:	20 91 4d 01 	lds	r18, 0x014D
 420:	30 91 4e 01 	lds	r19, 0x014E
 424:	2f 5f       	subi	r18, 0xFF	; 255
 426:	3f 4f       	sbci	r19, 0xFF	; 255
 428:	30 93 4e 01 	sts	0x014E, r19
 42c:	20 93 4d 01 	sts	0x014D, r18
    if( curr_delay >= d_time )   // 50msec * d_time 경과 후 
 430:	28 17       	cp	r18, r24
 432:	39 07       	cpc	r19, r25
 434:	10 f4       	brcc	.+4      	; 0x43a <Time_Delay_Polling+0x1e>
 436:	80 e0       	ldi	r24, 0x00	; 0
 438:	08 95       	ret
    {
       ret_val = 1; 
       curr_delay = 0 ;
 43a:	10 92 4e 01 	sts	0x014E, r1
 43e:	10 92 4d 01 	sts	0x014D, r1
 442:	81 e0       	ldi	r24, 0x01	; 1
    } 
    return  ret_val ;
}
 444:	08 95       	ret

00000446 <HexToDec>:
      if( digit >= 2)  LcdPutchar(NumToAsc(cnumber[1]));    // 10자리 디스필레이
      if( digit >= 1)  LcdPutchar(NumToAsc(cnumber[0]));    // 1자리 디스플레이
}

void HexToDec( unsigned short num, unsigned short radix)   // num으로 넘어온 16진수 형태의 데이터를 10진수로 
{       //  변환하여 각각의 자릿수를 전역변수 배열 cnumber[0](1자리) - cnumber[4](10000자리)에 저장하는 함수. 
 446:	0f 93       	push	r16
 448:	1f 93       	push	r17
 44a:	cf 93       	push	r28
 44c:	df 93       	push	r29
 44e:	9c 01       	movw	r18, r24
 450:	8b 01       	movw	r16, r22
	int j ;

	for(j=0; j<5 ; j++) cnumber[j] = 0 ;
 452:	10 92 48 01 	sts	0x0148, r1
 456:	10 92 49 01 	sts	0x0149, r1
 45a:	10 92 4a 01 	sts	0x014A, r1
 45e:	10 92 4b 01 	sts	0x014B, r1
 462:	10 92 4c 01 	sts	0x014C, r1
 466:	c0 e0       	ldi	r28, 0x00	; 0
 468:	d0 e0       	ldi	r29, 0x00	; 0
	j=0;
	do
	{
		cnumber[j++] = num % radix ; 
 46a:	c9 01       	movw	r24, r18
 46c:	b8 01       	movw	r22, r16
 46e:	0e 94 7c 03 	call	0x6f8	; 0x6f8 <__udivmodhi4>
 472:	fe 01       	movw	r30, r28
 474:	e8 5b       	subi	r30, 0xB8	; 184
 476:	fe 4f       	sbci	r31, 0xFE	; 254
 478:	80 83       	st	Z, r24
 47a:	21 96       	adiw	r28, 0x01	; 1
		num /= radix; 
 47c:	c9 01       	movw	r24, r18
 47e:	b8 01       	movw	r22, r16
 480:	0e 94 7c 03 	call	0x6f8	; 0x6f8 <__udivmodhi4>
 484:	9b 01       	movw	r18, r22
	} while(num);
 486:	61 15       	cp	r22, r1
 488:	71 05       	cpc	r23, r1
 48a:	79 f7       	brne	.-34     	; 0x46a <HexToDec+0x24>
} 
 48c:	df 91       	pop	r29
 48e:	cf 91       	pop	r28
 490:	1f 91       	pop	r17
 492:	0f 91       	pop	r16
 494:	08 95       	ret

00000496 <NumToAsc>:


char NumToAsc( unsigned char Num )   // Num으로 넘어온 16진수 1자리 숫자를 문자데이터(ASCII 코드)로 
{                                        // 변환하여 리턴하는 함수
	if( Num <10 ) Num += 0x30; 
 496:	8a 30       	cpi	r24, 0x0A	; 10
 498:	10 f4       	brcc	.+4      	; 0x49e <NumToAsc+0x8>
 49a:	80 5d       	subi	r24, 0xD0	; 208
 49c:	08 95       	ret
	else          Num += 0x37; 
 49e:	89 5c       	subi	r24, 0xC9	; 201

	return Num ;
}
 4a0:	08 95       	ret

000004a2 <msec_delay>:
 4a2:	20 ea       	ldi	r18, 0xA0	; 160
 4a4:	3f e0       	ldi	r19, 0x0F	; 15
 4a6:	04 c0       	rjmp	.+8      	; 0x4b0 <msec_delay+0xe>
 4a8:	f9 01       	movw	r30, r18
 4aa:	31 97       	sbiw	r30, 0x01	; 1
 4ac:	f1 f7       	brne	.-4      	; 0x4aa <msec_delay+0x8>


void msec_delay(int n)           // n msec 만큼의 시간지연 발생 함수 
{	
	for(; n>0; n--)		// 1msec 시간 지연을 n회 반복
 4ae:	01 97       	sbiw	r24, 0x01	; 1
 4b0:	18 16       	cp	r1, r24
 4b2:	19 06       	cpc	r1, r25
 4b4:	cc f3       	brlt	.-14     	; 0x4a8 <msec_delay+0x6>
		_delay_ms(1);		// 1msec 시간 지연
}
 4b6:	08 95       	ret

000004b8 <usec_delay>:
    can be achieved.
*/
void
_delay_loop_1(uint8_t __count)
{
	__asm__ volatile (
 4b8:	35 e0       	ldi	r19, 0x05	; 5
 4ba:	04 c0       	rjmp	.+8      	; 0x4c4 <usec_delay+0xc>
 4bc:	23 2f       	mov	r18, r19
 4be:	2a 95       	dec	r18
 4c0:	f1 f7       	brne	.-4      	; 0x4be <usec_delay+0x6>
void usec_delay(int n)            // n usec 만큼의 시간지연 발생 함수 
{	
	for(; n>0; n--)		// 1usec 시간 지연을 n회 반복
 4c2:	01 97       	sbiw	r24, 0x01	; 1
 4c4:	18 16       	cp	r1, r24
 4c6:	19 06       	cpc	r1, r25
 4c8:	cc f3       	brlt	.-14     	; 0x4bc <usec_delay+0x4>
		_delay_us(1);		
}
 4ca:	08 95       	ret

000004cc <Display_Number_LCD>:
}

//////////////////////////////////////////

void Display_Number_LCD( unsigned short num, unsigned char digit ) //부호없는 정수형변수(num)을 10진수 형태로 
{                                                       // 정해진 자릿수(digit) 만큼 LCD 에 디스플레이 하는 함수 
 4cc:	1f 93       	push	r17
 4ce:	16 2f       	mov	r17, r22
      HexToDec( num, 10); //10진수로 변환
 4d0:	6a e0       	ldi	r22, 0x0A	; 10
 4d2:	70 e0       	ldi	r23, 0x00	; 0
 4d4:	0e 94 23 02 	call	0x446	; 0x446 <HexToDec>

      if( digit < 1 )     digit = 1 ;
 4d8:	11 23       	and	r17, r17
 4da:	81 f1       	breq	.+96     	; 0x53c <Display_Number_LCD+0x70>
      if( digit > 5 )     digit = 5 ;
 4dc:	16 30       	cpi	r17, 0x06	; 6
 4de:	10 f0       	brcs	.+4      	; 0x4e4 <Display_Number_LCD+0x18>
 4e0:	15 e0       	ldi	r17, 0x05	; 5
 4e2:	02 c0       	rjmp	.+4      	; 0x4e8 <Display_Number_LCD+0x1c>

      if( digit >= 5)  LcdPutchar(NumToAsc(cnumber[4]));    // 10000자리 디스필레이 
 4e4:	15 30       	cpi	r17, 0x05	; 5
 4e6:	49 f4       	brne	.+18     	; 0x4fa <Display_Number_LCD+0x2e>
 4e8:	80 91 4c 01 	lds	r24, 0x014C
} 


char NumToAsc( unsigned char Num )   // Num으로 넘어온 16진수 1자리 숫자를 문자데이터(ASCII 코드)로 
{                                        // 변환하여 리턴하는 함수
	if( Num <10 ) Num += 0x30; 
 4ec:	8a 30       	cpi	r24, 0x0A	; 10
 4ee:	10 f4       	brcc	.+4      	; 0x4f4 <Display_Number_LCD+0x28>
 4f0:	80 5d       	subi	r24, 0xD0	; 208
 4f2:	01 c0       	rjmp	.+2      	; 0x4f6 <Display_Number_LCD+0x2a>
	else          Num += 0x37; 
 4f4:	89 5c       	subi	r24, 0xC9	; 201
      HexToDec( num, 10); //10진수로 변환

      if( digit < 1 )     digit = 1 ;
      if( digit > 5 )     digit = 5 ;

      if( digit >= 5)  LcdPutchar(NumToAsc(cnumber[4]));    // 10000자리 디스필레이 
 4f6:	0e 94 67 00 	call	0xce	; 0xce <LcdPutchar>
      if( digit >= 4)  LcdPutchar(NumToAsc(cnumber[3]));    // 1000자리 디스필레이
 4fa:	14 30       	cpi	r17, 0x04	; 4
 4fc:	48 f0       	brcs	.+18     	; 0x510 <Display_Number_LCD+0x44>
 4fe:	80 91 4b 01 	lds	r24, 0x014B
} 


char NumToAsc( unsigned char Num )   // Num으로 넘어온 16진수 1자리 숫자를 문자데이터(ASCII 코드)로 
{                                        // 변환하여 리턴하는 함수
	if( Num <10 ) Num += 0x30; 
 502:	8a 30       	cpi	r24, 0x0A	; 10
 504:	10 f4       	brcc	.+4      	; 0x50a <Display_Number_LCD+0x3e>
 506:	80 5d       	subi	r24, 0xD0	; 208
 508:	01 c0       	rjmp	.+2      	; 0x50c <Display_Number_LCD+0x40>
	else          Num += 0x37; 
 50a:	89 5c       	subi	r24, 0xC9	; 201

      if( digit < 1 )     digit = 1 ;
      if( digit > 5 )     digit = 5 ;

      if( digit >= 5)  LcdPutchar(NumToAsc(cnumber[4]));    // 10000자리 디스필레이 
      if( digit >= 4)  LcdPutchar(NumToAsc(cnumber[3]));    // 1000자리 디스필레이
 50c:	0e 94 67 00 	call	0xce	; 0xce <LcdPutchar>
      if( digit >= 3)  LcdPutchar(NumToAsc(cnumber[2]));    // 100자리 디스필레이 
 510:	13 30       	cpi	r17, 0x03	; 3
 512:	48 f0       	brcs	.+18     	; 0x526 <Display_Number_LCD+0x5a>
 514:	80 91 4a 01 	lds	r24, 0x014A
} 


char NumToAsc( unsigned char Num )   // Num으로 넘어온 16진수 1자리 숫자를 문자데이터(ASCII 코드)로 
{                                        // 변환하여 리턴하는 함수
	if( Num <10 ) Num += 0x30; 
 518:	8a 30       	cpi	r24, 0x0A	; 10
 51a:	10 f4       	brcc	.+4      	; 0x520 <Display_Number_LCD+0x54>
 51c:	80 5d       	subi	r24, 0xD0	; 208
 51e:	01 c0       	rjmp	.+2      	; 0x522 <Display_Number_LCD+0x56>
	else          Num += 0x37; 
 520:	89 5c       	subi	r24, 0xC9	; 201
      if( digit < 1 )     digit = 1 ;
      if( digit > 5 )     digit = 5 ;

      if( digit >= 5)  LcdPutchar(NumToAsc(cnumber[4]));    // 10000자리 디스필레이 
      if( digit >= 4)  LcdPutchar(NumToAsc(cnumber[3]));    // 1000자리 디스필레이
      if( digit >= 3)  LcdPutchar(NumToAsc(cnumber[2]));    // 100자리 디스필레이 
 522:	0e 94 67 00 	call	0xce	; 0xce <LcdPutchar>
      if( digit >= 2)  LcdPutchar(NumToAsc(cnumber[1]));    // 10자리 디스필레이
 526:	11 30       	cpi	r17, 0x01	; 1
 528:	49 f0       	breq	.+18     	; 0x53c <Display_Number_LCD+0x70>
 52a:	80 91 49 01 	lds	r24, 0x0149
} 


char NumToAsc( unsigned char Num )   // Num으로 넘어온 16진수 1자리 숫자를 문자데이터(ASCII 코드)로 
{                                        // 변환하여 리턴하는 함수
	if( Num <10 ) Num += 0x30; 
 52e:	8a 30       	cpi	r24, 0x0A	; 10
 530:	10 f4       	brcc	.+4      	; 0x536 <Display_Number_LCD+0x6a>
 532:	80 5d       	subi	r24, 0xD0	; 208
 534:	01 c0       	rjmp	.+2      	; 0x538 <Display_Number_LCD+0x6c>
	else          Num += 0x37; 
 536:	89 5c       	subi	r24, 0xC9	; 201
      if( digit > 5 )     digit = 5 ;

      if( digit >= 5)  LcdPutchar(NumToAsc(cnumber[4]));    // 10000자리 디스필레이 
      if( digit >= 4)  LcdPutchar(NumToAsc(cnumber[3]));    // 1000자리 디스필레이
      if( digit >= 3)  LcdPutchar(NumToAsc(cnumber[2]));    // 100자리 디스필레이 
      if( digit >= 2)  LcdPutchar(NumToAsc(cnumber[1]));    // 10자리 디스필레이
 538:	0e 94 67 00 	call	0xce	; 0xce <LcdPutchar>
      if( digit >= 1)  LcdPutchar(NumToAsc(cnumber[0]));    // 1자리 디스플레이
 53c:	80 91 48 01 	lds	r24, 0x0148
} 


char NumToAsc( unsigned char Num )   // Num으로 넘어온 16진수 1자리 숫자를 문자데이터(ASCII 코드)로 
{                                        // 변환하여 리턴하는 함수
	if( Num <10 ) Num += 0x30; 
 540:	8a 30       	cpi	r24, 0x0A	; 10
 542:	10 f4       	brcc	.+4      	; 0x548 <Display_Number_LCD+0x7c>
 544:	80 5d       	subi	r24, 0xD0	; 208
 546:	01 c0       	rjmp	.+2      	; 0x54a <Display_Number_LCD+0x7e>
	else          Num += 0x37; 
 548:	89 5c       	subi	r24, 0xC9	; 201

      if( digit >= 5)  LcdPutchar(NumToAsc(cnumber[4]));    // 10000자리 디스필레이 
      if( digit >= 4)  LcdPutchar(NumToAsc(cnumber[3]));    // 1000자리 디스필레이
      if( digit >= 3)  LcdPutchar(NumToAsc(cnumber[2]));    // 100자리 디스필레이 
      if( digit >= 2)  LcdPutchar(NumToAsc(cnumber[1]));    // 10자리 디스필레이
      if( digit >= 1)  LcdPutchar(NumToAsc(cnumber[0]));    // 1자리 디스플레이
 54a:	0e 94 67 00 	call	0xce	; 0xce <LcdPutchar>
}
 54e:	1f 91       	pop	r17
 550:	08 95       	ret

00000552 <main>:

int main() 
{   
    unsigned char   Key_Data = 0 ;

    LcdInit();                     // LCd 초기화 함수 
 552:	0e 94 e9 00 	call	0x1d2	; 0x1d2 <LcdInit>
    LcdMove(0,0);                 // LCD에 쓸 데이터 초기 위치 설정( 0행 0열)
 556:	80 e0       	ldi	r24, 0x00	; 0
 558:	60 e0       	ldi	r22, 0x00	; 0
 55a:	0e 94 d9 00 	call	0x1b2	; 0x1b2 <LcdMove>
    LcdPuts("DC Motor Control");  // LCD에 DC모터제어 메시지 디스플레이 
 55e:	80 e0       	ldi	r24, 0x00	; 0
 560:	91 e0       	ldi	r25, 0x01	; 1
 562:	0e 94 83 00 	call	0x106	; 0x106 <LcdPuts>
    LcdMove(1,0);                 // LCD에 쓸 데이터 초기 위치 설정( 1행 0열)   
 566:	81 e0       	ldi	r24, 0x01	; 1
 568:	60 e0       	ldi	r22, 0x00	; 0
 56a:	0e 94 d9 00 	call	0x1b2	; 0x1b2 <LcdMove>
    LcdPuts("Test Program");      // LCD에 DC모터제어 메시지 디스플레이
 56e:	81 e1       	ldi	r24, 0x11	; 17
 570:	91 e0       	ldi	r25, 0x01	; 1
 572:	0e 94 83 00 	call	0x106	; 0x106 <LcdPuts>
 576:	80 ed       	ldi	r24, 0xD0	; 208
 578:	97 e0       	ldi	r25, 0x07	; 7
    milliseconds can be achieved.
 */
void
_delay_loop_2(uint16_t __count)
{
	__asm__ volatile (
 57a:	20 ea       	ldi	r18, 0xA0	; 160
 57c:	3f e0       	ldi	r19, 0x0F	; 15
 57e:	f9 01       	movw	r30, r18
 580:	31 97       	sbiw	r30, 0x01	; 1
 582:	f1 f7       	brne	.-4      	; 0x580 <main+0x2e>
}


void msec_delay(int n)           // n msec 만큼의 시간지연 발생 함수 
{	
	for(; n>0; n--)		// 1msec 시간 지연을 n회 반복
 584:	01 97       	sbiw	r24, 0x01	; 1
 586:	d9 f7       	brne	.-10     	; 0x57e <main+0x2c>
    msec_delay(2000);            // 2초(2000msec) 시간지연

   ////////  Key 5개 사용을 위한 HW 관련 레지스터 설정  ////////////
   //  입력/출력 포트 설정 	   (교재 pp75-76 레지스터그림, 표6.1 참조)

    DDRA &= ~0x30;      // Key1(PA4), Key2(PA5): 입력포트로 설정 
 588:	8a b3       	in	r24, 0x1a	; 26
 58a:	8f 7c       	andi	r24, 0xCF	; 207
 58c:	8a bb       	out	0x1a, r24	; 26
                           // 입력포트 설정.  DDRA = 0b**00 ****, DDRA = DDRA & ~0b1111 0000(~0xF0)
    PORTA |= 0x30;       // Key1(PA4), Key2(PA5), Key3(PA6), Key4(PA7)  : 내부풀업사용모드로 설정  
 58e:	8b b3       	in	r24, 0x1b	; 27
 590:	80 63       	ori	r24, 0x30	; 48
 592:	8b bb       	out	0x1b, r24	; 27
                           // PORTA = 0b**11 ****, PORTA = PORTA | 0b1111 0000( 0xF0 )

    DDRB &= ~0x01;      // Key3(PB0) : 입력포트로 설정   
 594:	b8 98       	cbi	0x17, 0	; 23
                           // 입력포트 설정.  DDRB = 0b**** ***0, DDRB = DDRB & ~0b0000 0001(~0x01)
    PORTB |= 0x01;       // Key3(PB0)  : 내부풀업사용모드로 설정  
 596:	c0 9a       	sbi	0x18, 0	; 24
   // (주의):  Key 입력포트 설정을 변경하면 key_scan() 함수도 변경해야함. key_scan() 함수 변경 내용을 확인할 것. 

    ////////  DC모터 1개 구동을 위한 HW 관련 레지스터 설정  ////////////
    //  입력/출력 포트 설정 	   (교재 pp75-76 레지스터그림, 표6.1 참조)

    DDRA |= 0x01;       // DC모터1 방향제어포트(PA0), DC모터2 방향제어포트(PA1) : 출력포트로 설정   
 598:	d0 9a       	sbi	0x1a, 0	; 26
                        // DDRA = 0b**** **11, DDRA = DDRA | 0b0000 0001( 0x03 )

    DDRB |= 0x20;       // DC모터1 속도제어 PWM포트(OC1A/PB5): 
 59a:	bd 9a       	sbi	0x17, 5	; 23
                        // 출력포트로 설정   
                        // DDRB = 0b**1* ****, DDRB = DDRB | 0b0110 0000( 0x60 )

    DDRA |= 0x04;       // LED1(DC모터1 동작상태표시)(PA2) : 출력포트로 설정                          
 59c:	d2 9a       	sbi	0x1a, 2	; 26

    ////////  Timer1 설정( DC모터1 PWM신호(OC1A/PB5) 발생 )   //////////// 
    ///////   PWM신호 주파수 = 5kHz (주기 = 200usec )  //////////////////////
    ///////   교재 P238-245(레지스터 그림과 표12.2, 표12.4, 표12.5) 참조    

    TCCR1A &= ~0x41;     // Fast PWM: 비교일치시 OC1A(PB5)), OC1B(PB6)핀을 0으로하고 TOP에서 1을 출력
 59e:	8f b5       	in	r24, 0x2f	; 47
 5a0:	8e 7b       	andi	r24, 0xBE	; 190
 5a2:	8f bd       	out	0x2f, r24	; 47
                         // (표12.2 참조),   Fast PWM ( mode 14 ) 설정 (표12.4 참조)
                         // TCCR1A = 0b10** **10 
                         // TCCR1A = TCCR1A & ~0b0100 0001(~0x41 )  
    TCCR1A |= 0x82;      // TCCR1A = TCCR1A |   0b1000 0010( 0x82 )  
 5a4:	8f b5       	in	r24, 0x2f	; 47
 5a6:	82 68       	ori	r24, 0x82	; 130
 5a8:	8f bd       	out	0x2f, r24	; 47

    TCCR1B &= ~0x04;     // 64분주 타이머1 시작(내부클럭 주기=64/(16*10^6Hz)=4usec ), Fast PWM(mode 14)설정
 5aa:	8e b5       	in	r24, 0x2e	; 46
 5ac:	8b 7f       	andi	r24, 0xFB	; 251
 5ae:	8e bd       	out	0x2e, r24	; 46
                         // (표12.4 - 표12.5 참조)
                         // TCCR1B = 0b***1 1011   
                         // TCCR1B = TCCR1B & ~0b0000 0100(~0x04 )  
    TCCR1B |= 0x1B;      // TCCR1B = TCCR1B |   0b0001 1011( 0x1B )  
 5b0:	8e b5       	in	r24, 0x2e	; 46
 5b2:	8b 61       	ori	r24, 0x1B	; 27
 5b4:	8e bd       	out	0x2e, r24	; 46

    ICR1 = 50;           // PWM 주기(주파수) 설정( 주기= 50*4usec = 200usec, 주파수 = 1/(200usec) = 5kHz )
 5b6:	82 e3       	ldi	r24, 0x32	; 50
 5b8:	90 e0       	ldi	r25, 0x00	; 0
 5ba:	97 bd       	out	0x27, r25	; 39
 5bc:	86 bd       	out	0x26, r24	; 38
    PWM_Period = ICR1;   // PWM 신호 주기를 전역변수에 저장 
 5be:	86 b5       	in	r24, 0x26	; 38
 5c0:	97 b5       	in	r25, 0x27	; 39
 5c2:	90 93 51 01 	sts	0x0151, r25
 5c6:	80 93 50 01 	sts	0x0150, r24

    Motor1_Duty = 0;         // DC모터1 속도 0 설정( 최대 = 100[%],  최소 = 0[%] )
 5ca:	10 92 57 01 	sts	0x0157, r1
 5ce:	10 92 56 01 	sts	0x0156, r1
    OCR1A = PWM_Period - duty;   // 회전속도(PWM Duty)설정 : DC모터1 A단자(+) = PWM신호(OC1A(PB5))  
}

void DC_Motor1_Stop( void )   // DC 모터1 정지 함수 
{
    PORTA &= ~0x01;      // 회전방향설정(정회전) :          DC모터1 B단자(-) = 0(Low) ( PA0 = 0 )    
 5d2:	d8 98       	cbi	0x1b, 0	; 27
    OCR1A = 0;           // 회전속도 0(PWM Duty = 0) 설정 : DC모터1 A단자(+) = PWM신호(OC1A(PB5))  
 5d4:	1b bc       	out	0x2b, r1	; 43
 5d6:	1a bc       	out	0x2a, r1	; 42
    DC_Motor1_Stop( );       // DC모터1 정지

    ////////////  Timer 2 설정  ( 10 msec 주기의 타이머2 오버플로 인터럽트 설정 )  ///////////////
    // 교재 P133-137(레지스터 그림과 표8.1-표8.6) 참조    

    TCCR2 &= ~0x4A;           // Normal mode(타이머모드), 타이머 2 시작(1024분주 사용)
 5d8:	85 b5       	in	r24, 0x25	; 37
 5da:	85 7b       	andi	r24, 0xB5	; 181
 5dc:	85 bd       	out	0x25, r24	; 37
                              // TCCR2 = 0b*0**0101 
                              // TCCR2 =TCCR2 & ~0b01001010(~0x4A )  
    TCCR2 |= 0x05;            // TCCR2 =TCCR2 | 0b00000101( 0x05 )  
 5de:	85 b5       	in	r24, 0x25	; 37
 5e0:	85 60       	ori	r24, 0x05	; 5
 5e2:	85 bd       	out	0x25, r24	; 37
    TCNT2 = 256 - 156;        // 내부클럭주기 = 1024/ (16x10^6) = 64 usec,  
 5e4:	84 e6       	ldi	r24, 0x64	; 100
 5e6:	84 bd       	out	0x24, r24	; 36
                              // 오버플로인터럽트 주기 = 2msec
                              // 156 = 10msec/ 64usec,  TCNT2 = 256 - 156
    TIMSK |= 0x40;            // 타이머2 오버플로 인터럽트 허용 
 5e8:	87 b7       	in	r24, 0x37	; 55
 5ea:	80 64       	ori	r24, 0x40	; 64
 5ec:	87 bf       	out	0x37, r24	; 55
                              // TIMSK = 0b*1** ****, TIMSK = TIMSK | 0b0100 0000( 0x40 )
    sei();                    // 전역 인터럽트 허용
 5ee:	78 94       	sei

    while (1) 
    { 

       Key_Data = Key_Input( );           // 함수 Key_Input( )호출. 어떤 Key를 누르는지 체크  
 5f0:	0e 94 e7 01 	call	0x3ce	; 0x3ce <Key_Input>

       if( Key_Data == KEY1 )             // Key 1을 누르면
 5f4:	81 30       	cpi	r24, 0x01	; 1
 5f6:	c9 f4       	brne	.+50     	; 0x62a <main+0xd8>
       {  
 	       Motor1_Duty += 5;                                          // DC모터1 duty 값을 5씩 증가 
 5f8:	80 91 56 01 	lds	r24, 0x0156
 5fc:	90 91 57 01 	lds	r25, 0x0157
 600:	05 96       	adiw	r24, 0x05	; 5
 602:	90 93 57 01 	sts	0x0157, r25
 606:	80 93 56 01 	sts	0x0156, r24
           if( Motor1_Duty > Duty1_Max )  Motor1_Duty = Duty1_Max;    // 최대 범위를 벗어나면 Duty1_Max로 설정 
 60a:	20 91 56 01 	lds	r18, 0x0156
 60e:	30 91 57 01 	lds	r19, 0x0157
 612:	80 91 46 01 	lds	r24, 0x0146
 616:	90 91 47 01 	lds	r25, 0x0147
 61a:	82 17       	cp	r24, r18
 61c:	93 07       	cpc	r25, r19
 61e:	ec f5       	brge	.+122    	; 0x69a <main+0x148>
 620:	80 91 46 01 	lds	r24, 0x0146
 624:	90 91 47 01 	lds	r25, 0x0147
 628:	1a c0       	rjmp	.+52     	; 0x65e <main+0x10c>
       }

       else if( Key_Data == KEY2 )        // Key 2를 누르면
 62a:	82 30       	cpi	r24, 0x02	; 2
 62c:	e9 f4       	brne	.+58     	; 0x668 <main+0x116>
       {  
            Motor1_Duty -= 5;                                        // DC모터1 duty 값을 5씩 감소
 62e:	80 91 56 01 	lds	r24, 0x0156
 632:	90 91 57 01 	lds	r25, 0x0157
 636:	05 97       	sbiw	r24, 0x05	; 5
 638:	90 93 57 01 	sts	0x0157, r25
 63c:	80 93 56 01 	sts	0x0156, r24
           if( Motor1_Duty < Duty1_Min )  Motor1_Duty = Duty1_Min;   // 최소 범위를 벗어나면 Duty1_Min으로 설정 
 640:	20 91 56 01 	lds	r18, 0x0156
 644:	30 91 57 01 	lds	r19, 0x0157
 648:	80 91 58 01 	lds	r24, 0x0158
 64c:	90 91 59 01 	lds	r25, 0x0159
 650:	28 17       	cp	r18, r24
 652:	39 07       	cpc	r19, r25
 654:	14 f5       	brge	.+68     	; 0x69a <main+0x148>
 656:	80 91 58 01 	lds	r24, 0x0158
 65a:	90 91 59 01 	lds	r25, 0x0159
 65e:	90 93 57 01 	sts	0x0157, r25
 662:	80 93 56 01 	sts	0x0156, r24
 666:	19 c0       	rjmp	.+50     	; 0x69a <main+0x148>
       }

       else if( Key_Data == KEY3 )        // Key 3를 누르면
 668:	83 30       	cpi	r24, 0x03	; 3
 66a:	b9 f4       	brne	.+46     	; 0x69a <main+0x148>
       {  
           Key_cnt++;   
 66c:	80 91 5a 01 	lds	r24, 0x015A
 670:	8f 5f       	subi	r24, 0xFF	; 255
 672:	80 93 5a 01 	sts	0x015A, r24
           if( Key_cnt >= 2 ) Key_cnt = 0; 
 676:	80 91 5a 01 	lds	r24, 0x015A
 67a:	82 30       	cpi	r24, 0x02	; 2
 67c:	10 f0       	brcs	.+4      	; 0x682 <main+0x130>
 67e:	10 92 5a 01 	sts	0x015A, r1

           if( Key_cnt == 0 ) Operating_Sequence = STOP_MODE;  // Key3가 짝수번 눌러지면 모터 정지모드 
 682:	80 91 5a 01 	lds	r24, 0x015A
 686:	88 23       	and	r24, r24
 688:	11 f4       	brne	.+4      	; 0x68e <main+0x13c>
 68a:	10 92 52 01 	sts	0x0152, r1
           if( Key_cnt == 1 ) Operating_Sequence = RUN_MODE;   // Key3가 홀수번 눌러지면 모터 회전모드 
 68e:	80 91 5a 01 	lds	r24, 0x015A
 692:	81 30       	cpi	r24, 0x01	; 1
 694:	11 f4       	brne	.+4      	; 0x69a <main+0x148>
 696:	80 93 52 01 	sts	0x0152, r24

       }
       ///////  LCD에 모터1 동작상태 디스플레이  ///////////

       LcdCommand( ALLCLR );              // LCD 화면 지우기
 69a:	81 e0       	ldi	r24, 0x01	; 1
 69c:	0e 94 a0 00 	call	0x140	; 0x140 <LcdCommand>

       if( Operating_Sequence == STOP_MODE )   // 모터 정지 모드 이면 
 6a0:	80 91 52 01 	lds	r24, 0x0152
 6a4:	88 23       	and	r24, r24
 6a6:	41 f4       	brne	.+16     	; 0x6b8 <main+0x166>
       {
	      LcdMove(0, 0);                  // LCD에 쓸 데이터 초기 위치 설정 (0행, 0열) 
 6a8:	60 e0       	ldi	r22, 0x00	; 0
 6aa:	0e 94 d9 00 	call	0x1b2	; 0x1b2 <LcdMove>
          LcdPuts( "Stop Mode!!" );       // 정지모드 메시지 디스플레이   
 6ae:	8e e1       	ldi	r24, 0x1E	; 30
 6b0:	91 e0       	ldi	r25, 0x01	; 1
 6b2:	0e 94 83 00 	call	0x106	; 0x106 <LcdPuts>
 6b6:	9c cf       	rjmp	.-200    	; 0x5f0 <main+0x9e>
       } 

       else if( Operating_Sequence == RUN_MODE )      // 모터 회전 모드(동작시퀀스 실행) 이면 
 6b8:	80 91 52 01 	lds	r24, 0x0152
 6bc:	81 30       	cpi	r24, 0x01	; 1
 6be:	09 f0       	breq	.+2      	; 0x6c2 <main+0x170>
 6c0:	97 cf       	rjmp	.-210    	; 0x5f0 <main+0x9e>
       { 

		      LcdMove(0, 0);						  //LCD에 쓸 데이터 초기 위치 설정 (0행, 0열)
 6c2:	80 e0       	ldi	r24, 0x00	; 0
 6c4:	60 e0       	ldi	r22, 0x00	; 0
 6c6:	0e 94 d9 00 	call	0x1b2	; 0x1b2 <LcdMove>
              LcdPuts( " Run Mode!! " );              // 모터1 정방향 회전 메시지 디스플레이 
 6ca:	8a e2       	ldi	r24, 0x2A	; 42
 6cc:	91 e0       	ldi	r25, 0x01	; 1
 6ce:	0e 94 83 00 	call	0x106	; 0x106 <LcdPuts>
			  LcdMove(1, 0);						  //LCD에 쓸 데이터 초기 위치 설정 (1행, 0열)
 6d2:	81 e0       	ldi	r24, 0x01	; 1
 6d4:	60 e0       	ldi	r22, 0x00	; 0
 6d6:	0e 94 d9 00 	call	0x1b2	; 0x1b2 <LcdMove>
			  LcdPuts( " Motor Duty = " );              // 모터1 정방향 회전 메시지 디스플레이 
 6da:	87 e3       	ldi	r24, 0x37	; 55
 6dc:	91 e0       	ldi	r25, 0x01	; 1
 6de:	0e 94 83 00 	call	0x106	; 0x106 <LcdPuts>
              Display_Number_LCD( Motor1_Duty, 3 );   // 모터1 속도(Duty) 3자리 디스플레이
 6e2:	80 91 56 01 	lds	r24, 0x0156
 6e6:	90 91 57 01 	lds	r25, 0x0157
 6ea:	63 e0       	ldi	r22, 0x03	; 3
 6ec:	0e 94 66 02 	call	0x4cc	; 0x4cc <Display_Number_LCD>
              LcdPutchar( '%' );                      // 문자 % 디스플레이 
 6f0:	85 e2       	ldi	r24, 0x25	; 37
 6f2:	0e 94 67 00 	call	0xce	; 0xce <LcdPutchar>
 6f6:	7c cf       	rjmp	.-264    	; 0x5f0 <main+0x9e>

000006f8 <__udivmodhi4>:
 6f8:	aa 1b       	sub	r26, r26
 6fa:	bb 1b       	sub	r27, r27
 6fc:	51 e1       	ldi	r21, 0x11	; 17
 6fe:	07 c0       	rjmp	.+14     	; 0x70e <__udivmodhi4_ep>

00000700 <__udivmodhi4_loop>:
 700:	aa 1f       	adc	r26, r26
 702:	bb 1f       	adc	r27, r27
 704:	a6 17       	cp	r26, r22
 706:	b7 07       	cpc	r27, r23
 708:	10 f0       	brcs	.+4      	; 0x70e <__udivmodhi4_ep>
 70a:	a6 1b       	sub	r26, r22
 70c:	b7 0b       	sbc	r27, r23

0000070e <__udivmodhi4_ep>:
 70e:	88 1f       	adc	r24, r24
 710:	99 1f       	adc	r25, r25
 712:	5a 95       	dec	r21
 714:	a9 f7       	brne	.-22     	; 0x700 <__udivmodhi4_loop>
 716:	80 95       	com	r24
 718:	90 95       	com	r25
 71a:	bc 01       	movw	r22, r24
 71c:	cd 01       	movw	r24, r26
 71e:	08 95       	ret

00000720 <__divmodhi4>:
 720:	97 fb       	bst	r25, 7
 722:	09 2e       	mov	r0, r25
 724:	07 26       	eor	r0, r23
 726:	0a d0       	rcall	.+20     	; 0x73c <__divmodhi4_neg1>
 728:	77 fd       	sbrc	r23, 7
 72a:	04 d0       	rcall	.+8      	; 0x734 <__divmodhi4_neg2>
 72c:	e5 df       	rcall	.-54     	; 0x6f8 <__udivmodhi4>
 72e:	06 d0       	rcall	.+12     	; 0x73c <__divmodhi4_neg1>
 730:	00 20       	and	r0, r0
 732:	1a f4       	brpl	.+6      	; 0x73a <__divmodhi4_exit>

00000734 <__divmodhi4_neg2>:
 734:	70 95       	com	r23
 736:	61 95       	neg	r22
 738:	7f 4f       	sbci	r23, 0xFF	; 255

0000073a <__divmodhi4_exit>:
 73a:	08 95       	ret

0000073c <__divmodhi4_neg1>:
 73c:	f6 f7       	brtc	.-4      	; 0x73a <__divmodhi4_exit>
 73e:	90 95       	com	r25
 740:	81 95       	neg	r24
 742:	9f 4f       	sbci	r25, 0xFF	; 255
 744:	08 95       	ret

00000746 <_exit>:
 746:	f8 94       	cli

00000748 <__stop_program>:
 748:	ff cf       	rjmp	.-2      	; 0x748 <__stop_program>
